target datalayout = "e-m:e-p270:32:32-p271:32:32-p272:64:64-i64:64-i128:128-f80:128-n8:16:32:64-S128"
target triple = "x86_64-pc-linux-gnu"

%struct._radius_attr_info_t = type { ptr, %union._radius_attr_type_t, i32, i8, i8, ptr, ptr, ptr, i32, i32, i32, i32, i32, i32, ptr }
%union._radius_attr_type_t = type { i32 }

@.str = private unnamed_addr constant [4 x i8] c"%lu\00", align 1
@.str.1 = private unnamed_addr constant [31 x i8] c"[unhandled integer length(%u)]\00", align 1
@.str.2 = private unnamed_addr constant [7 x i8] c"%s(%u)\00", align 1
@.str.3 = private unnamed_addr constant [8 x i8] c"Unknown\00", align 1
@.str.4 = private unnamed_addr constant [3 x i8] c"%u\00", align 1

; Function Attrs: null_pointer_is_valid sspstrong uwtable
define hidden void @radius_integer(ptr noundef %0, ptr noundef %1, ptr noundef %2, ptr noundef %3, i32 noundef %4, i32 noundef %5, ptr noundef %6) #0 {
  %8 = alloca ptr, align 8
  %9 = alloca ptr, align 8
  %10 = alloca ptr, align 8
  %11 = alloca ptr, align 8
  %12 = alloca i32, align 4
  %13 = alloca i32, align 4
  %14 = alloca ptr, align 8
  %15 = alloca i32, align 4
  %16 = alloca i64, align 8
  %17 = alloca i32, align 4
  store ptr %0, ptr %8, align 8
  store ptr %1, ptr %9, align 8
  store ptr %2, ptr %10, align 8
  store ptr %3, ptr %11, align 8
  store i32 %4, ptr %12, align 4
  store i32 %5, ptr %13, align 4
  store ptr %6, ptr %14, align 8
  call void @llvm.lifetime.start.p0(i64 4, ptr %15) #17
  %18 = load i32, ptr %13, align 4
  switch i32 %18, label %52 [
    i32 1, label %19
    i32 2, label %24
    i32 3, label %29
    i32 4, label %33
    i32 8, label %37
  ]

19:                                               ; preds = %7
  %20 = load ptr, ptr %11, align 8
  %21 = load i32, ptr %12, align 4
  %22 = call zeroext i8 @tvb_get_uint8(ptr noundef %20, i32 noundef %21)
  %23 = zext i8 %22 to i32
  store i32 %23, ptr %15, align 4
  br label %55

24:                                               ; preds = %7
  %25 = load ptr, ptr %11, align 8
  %26 = load i32, ptr %12, align 4
  %27 = call zeroext i16 @tvb_get_ntohs(ptr noundef %25, i32 noundef %26)
  %28 = zext i16 %27 to i32
  store i32 %28, ptr %15, align 4
  br label %55

29:                                               ; preds = %7
  %30 = load ptr, ptr %11, align 8
  %31 = load i32, ptr %12, align 4
  %32 = call i32 @tvb_get_ntoh24(ptr noundef %30, i32 noundef %31)
  store i32 %32, ptr %15, align 4
  br label %55

33:                                               ; preds = %7
  %34 = load ptr, ptr %11, align 8
  %35 = load i32, ptr %12, align 4
  %36 = call i32 @tvb_get_ntohl(ptr noundef %34, i32 noundef %35)
  store i32 %36, ptr %15, align 4
  br label %55

37:                                               ; preds = %7
  call void @llvm.lifetime.start.p0(i64 8, ptr %16) #17
  %38 = load ptr, ptr %11, align 8
  %39 = load i32, ptr %12, align 4
  %40 = call i64 @tvb_get_ntoh64(ptr noundef %38, i32 noundef %39)
  store i64 %40, ptr %16, align 8
  %41 = load ptr, ptr %9, align 8
  %42 = load ptr, ptr %8, align 8
  %43 = getelementptr inbounds nuw %struct._radius_attr_info_t, ptr %42, i32 0, i32 10
  %44 = load i32, ptr %43, align 8
  %45 = load ptr, ptr %11, align 8
  %46 = load i32, ptr %12, align 4
  %47 = load i32, ptr %13, align 4
  %48 = load i64, ptr %16, align 8
  %49 = call ptr @proto_tree_add_uint64(ptr noundef %41, i32 noundef %44, ptr noundef %45, i32 noundef %46, i32 noundef %47, i64 noundef %48)
  %50 = load ptr, ptr %14, align 8
  %51 = load i64, ptr %16, align 8
  call void (ptr, ptr, ...) @proto_item_append_text(ptr noundef %50, ptr noundef @.str, i64 noundef %51)
  store i32 1, ptr %17, align 4
  call void @llvm.lifetime.end.p0(i64 8, ptr %16) #17
  br label %80

52:                                               ; preds = %7
  %53 = load ptr, ptr %14, align 8
  %54 = load i32, ptr %13, align 4
  call void (ptr, ptr, ...) @proto_item_append_text(ptr noundef %53, ptr noundef @.str.1, i32 noundef %54)
  store i32 1, ptr %17, align 4
  br label %80

55:                                               ; preds = %33, %29, %24, %19
  %56 = load ptr, ptr %9, align 8
  %57 = load ptr, ptr %8, align 8
  %58 = getelementptr inbounds nuw %struct._radius_attr_info_t, ptr %57, i32 0, i32 9
  %59 = load i32, ptr %58, align 4
  %60 = load ptr, ptr %11, align 8
  %61 = load i32, ptr %12, align 4
  %62 = load i32, ptr %13, align 4
  %63 = call ptr @proto_tree_add_item(ptr noundef %56, i32 noundef %59, ptr noundef %60, i32 noundef %61, i32 noundef %62, i32 noundef 0)
  %64 = load ptr, ptr %8, align 8
  %65 = getelementptr inbounds nuw %struct._radius_attr_info_t, ptr %64, i32 0, i32 7
  %66 = load ptr, ptr %65, align 8
  %67 = icmp ne ptr %66, null
  br i1 %67, label %68, label %76

68:                                               ; preds = %55
  %69 = load ptr, ptr %14, align 8
  %70 = load i32, ptr %15, align 4
  %71 = load ptr, ptr %8, align 8
  %72 = getelementptr inbounds nuw %struct._radius_attr_info_t, ptr %71, i32 0, i32 7
  %73 = load ptr, ptr %72, align 8
  %74 = call ptr @val_to_str_const(i32 noundef %70, ptr noundef %73, ptr noundef @.str.3)
  %75 = load i32, ptr %15, align 4
  call void (ptr, ptr, ...) @proto_item_append_text(ptr noundef %69, ptr noundef @.str.2, ptr noundef %74, i32 noundef %75)
  br label %79

76:                                               ; preds = %55
  %77 = load ptr, ptr %14, align 8
  %78 = load i32, ptr %15, align 4
  call void (ptr, ptr, ...) @proto_item_append_text(ptr noundef %77, ptr noundef @.str.4, i32 noundef %78)
  br label %79

79:                                               ; preds = %76, %68
  store i32 0, ptr %17, align 4
  br label %80

80:                                               ; preds = %79, %52, %37
  call void @llvm.lifetime.end.p0(i64 4, ptr %15) #17
  %81 = load i32, ptr %17, align 4
  switch i32 %81, label %83 [
    i32 0, label %82
    i32 1, label %82
  ]

82:                                               ; preds = %80, %80
  ret void

83:                                               ; preds = %80
  unreachable
}