; Function Attrs: null_pointer_is_valid sspstrong uwtable
define hidden void @radius_integer(ptr noundef readonly captures(none) %0, ptr noundef %1, ptr readnone captures(none) %2, ptr noundef %3, i32 noundef %4, i32 noundef %5, ptr noundef %6) #0 {
  switch i32 %5, label %23 [
    i32 1, label %8
    i32 2, label %11
    i32 3, label %14
    i32 4, label %16
    i32 8, label %18
  ]

8:                                                ; preds = %7
  %9 = tail call zeroext i8 @tvb_get_uint8(ptr noundef %3, i32 noundef %4)
  %10 = zext i8 %9 to i32
  br label %24

11:                                               ; preds = %7
  %12 = tail call zeroext i16 @tvb_get_ntohs(ptr noundef %3, i32 noundef %4)
  %13 = zext i16 %12 to i32
  br label %24

14:                                               ; preds = %7
  %15 = tail call i32 @tvb_get_ntoh24(ptr noundef %3, i32 noundef %4)
  br label %24

16:                                               ; preds = %7
  %17 = tail call i32 @tvb_get_ntohl(ptr noundef %3, i32 noundef %4)
  br label %24

18:                                               ; preds = %7
  %19 = tail call i64 @tvb_get_ntoh64(ptr noundef %3, i32 noundef %4)
  %20 = getelementptr inbounds nuw i8, ptr %0, i64 56
  %21 = load i32, ptr %20, align 8
  %22 = tail call ptr @proto_tree_add_uint64(ptr noundef %1, i32 noundef %21, ptr noundef %3, i32 noundef %4, i32 noundef 8, i64 noundef %19)
  tail call void (ptr, ptr, ...) @proto_item_append_text(ptr noundef %6, ptr noundef nonnull @.str, i64 noundef %19)
  br label %33

23:                                               ; preds = %7
  tail call void (ptr, ptr, ...) @proto_item_append_text(ptr noundef %6, ptr noundef nonnull @.str.1, i32 noundef %5)
  br label %33

24:                                               ; preds = %16, %14, %11, %8
  %.0 = phi i32 [ %17, %16 ], [ %15, %14 ], [ %13, %11 ], [ %10, %8 ]
  %25 = getelementptr inbounds nuw i8, ptr %0, i64 52
  %26 = load i32, ptr %25, align 4
  %27 = tail call ptr @proto_tree_add_item(ptr noundef %1, i32 noundef %26, ptr noundef %3, i32 noundef %4, i32 noundef %5, i32 noundef 0)
  %28 = getelementptr inbounds nuw i8, ptr %0, i64 40
  %29 = load ptr, ptr %28, align 8
  %.not = icmp eq ptr %29, null
  br i1 %.not, label %32, label %30

30:                                               ; preds = %24
  %31 = tail call ptr @val_to_str_const(i32 noundef %.0, ptr noundef nonnull %29, ptr noundef nonnull @.str.3)
  tail call void (ptr, ptr, ...) @proto_item_append_text(ptr noundef %6, ptr noundef nonnull @.str.2, ptr noundef %31, i32 noundef %.0)
  br label %33

32:                                               ; preds = %24
  tail call void (ptr, ptr, ...) @proto_item_append_text(ptr noundef %6, ptr noundef nonnull @.str.4, i32 noundef %.0)
  br label %33

33:                                               ; preds = %30, %32, %23, %18
  ret void
}